; ModuleID = '38/1679.c'
source_filename = "38/1679.c"
target datalayout = "e-m:e-p270:32:32-p271:32:32-p272:64:64-i64:64-f80:128-n8:16:32:64-S128"
target triple = "x86_64-pc-linux-gnu"

@.str = private unnamed_addr constant [3 x i8] c"%d\00", align 1
@.str.1 = private unnamed_addr constant [3 x i8] c"%f\00", align 1
@.str.2 = private unnamed_addr constant [7 x i8] c"%.5lf\0A\00", align 1

; Function Attrs: noinline nounwind uwtable
define dso_local i32 @main() #0 {
  %1 = alloca i32, align 4
  %2 = alloca i32, align 4
  %3 = alloca i32, align 4
  %4 = alloca [1000 x float], align 16
  %5 = alloca float, align 4
  %6 = alloca float, align 4
  %7 = alloca double, align 8
  %8 = alloca double, align 8
  %9 = alloca double, align 8
  %10 = alloca i32, align 4
  %11 = alloca i32, align 4
  %12 = alloca i32, align 4
  store i32 0, i32* %1, align 4
  store float 0.000000e+00, float* %6, align 4
  store double 0.000000e+00, double* %8, align 8
  %13 = call i32 (i8*, ...) @__isoc99_scanf(i8* getelementptr inbounds ([3 x i8], [3 x i8]* @.str, i64 0, i64 0), i32* %2)
  store i32 0, i32* %10, align 4
  br label %14

14:                                               ; preds = %76, %0
  %15 = load i32, i32* %10, align 4
  %16 = load i32, i32* %2, align 4
  %17 = icmp slt i32 %15, %16
  br i1 %17, label %18, label %79

18:                                               ; preds = %14
  %19 = call i32 (i8*, ...) @__isoc99_scanf(i8* getelementptr inbounds ([3 x i8], [3 x i8]* @.str, i64 0, i64 0), i32* %3)
  store i32 0, i32* %11, align 4
  br label %20

20:                                               ; preds = %35, %18
  %21 = load i32, i32* %11, align 4
  %22 = load i32, i32* %3, align 4
  %23 = icmp slt i32 %21, %22
  br i1 %23, label %24, label %38

24:                                               ; preds = %20
  %25 = load i32, i32* %11, align 4
  %26 = sext i32 %25 to i64
  %27 = getelementptr inbounds [1000 x float], [1000 x float]* %4, i64 0, i64 %26
  %28 = call i32 (i8*, ...) @__isoc99_scanf(i8* getelementptr inbounds ([3 x i8], [3 x i8]* @.str.1, i64 0, i64 0), float* %27)
  %29 = load float, float* %6, align 4
  %30 = load i32, i32* %11, align 4
  %31 = sext i32 %30 to i64
  %32 = getelementptr inbounds [1000 x float], [1000 x float]* %4, i64 0, i64 %31
  %33 = load float, float* %32, align 4
  %34 = fadd float %29, %33
  store float %34, float* %6, align 4
  br label %35

35:                                               ; preds = %24
  %36 = load i32, i32* %11, align 4
  %37 = add nsw i32 %36, 1
  store i32 %37, i32* %11, align 4
  br label %20

38:                                               ; preds = %20
  %39 = load float, float* %6, align 4
  %40 = load i32, i32* %3, align 4
  %41 = sitofp i32 %40 to float
  %42 = fdiv float %39, %41
  store float %42, float* %5, align 4
  store i32 0, i32* %12, align 4
  br label %43

43:                                               ; preds = %70, %38
  %44 = load i32, i32* %12, align 4
  %45 = load i32, i32* %3, align 4
  %46 = icmp slt i32 %44, %45
  br i1 %46, label %47, label %73

47:                                               ; preds = %43
  %48 = load i32, i32* %12, align 4
  %49 = sext i32 %48 to i64
  %50 = getelementptr inbounds [1000 x float], [1000 x float]* %4, i64 0, i64 %49
  %51 = load float, float* %50, align 4
  %52 = load float, float* %5, align 4
  %53 = fsub float %51, %52
  %54 = load i32, i32* %12, align 4
  %55 = sext i32 %54 to i64
  %56 = getelementptr inbounds [1000 x float], [1000 x float]* %4, i64 0, i64 %55
  %57 = load float, float* %56, align 4
  %58 = load float, float* %5, align 4
  %59 = fsub float %57, %58
  %60 = fmul float %53, %59
  %61 = load i32, i32* %3, align 4
  %62 = sitofp i32 %61 to float
  %63 = fdiv float %60, %62
  %64 = fpext float %63 to double
  store double %64, double* %9, align 8
  %65 = load double, double* %8, align 8
  %66 = load double, double* %9, align 8
  %67 = fadd double %65, %66
  store double %67, double* %8, align 8
  %68 = load double, double* %8, align 8
  %69 = call double @sqrt(double %68) #3
  store double %69, double* %7, align 8
  br label %70

70:                                               ; preds = %47
  %71 = load i32, i32* %12, align 4
  %72 = add nsw i32 %71, 1
  store i32 %72, i32* %12, align 4
  br label %43

73:                                               ; preds = %43
  %74 = load double, double* %7, align 8
  %75 = call i32 (i8*, ...) @printf(i8* getelementptr inbounds ([7 x i8], [7 x i8]* @.str.2, i64 0, i64 0), double %74)
  store float 0.000000e+00, float* %6, align 4
  store double 0.000000e+00, double* %8, align 8
  br label %76

76:                                               ; preds = %73
  %77 = load i32, i32* %10, align 4
  %78 = add nsw i32 %77, 1
  store i32 %78, i32* %10, align 4
  br label %14

79:                                               ; preds = %14
  ret i32 0
}

declare dso_local i32 @__isoc99_scanf(i8*, ...) #1

; Function Attrs: nounwind
declare dso_local double @sqrt(double) #2

declare dso_local i32 @printf(i8*, ...) #1


!llvm.module.flags = !{!0}
!llvm.ident = !{!1}

!0 = !{i32 1, !"wchar_size", i32 4}
!1 = !{!"clang version 10.0.0-4ubuntu1 "}
