; ModuleID = 'source-C-CXX/37/1679.c'
source_filename = "source-C-CXX/37/1679.c"
target datalayout = "e-m:e-p270:32:32-p271:32:32-p272:64:64-i64:64-f80:128-n8:16:32:64-S128"
target triple = "x86_64-pc-linux-gnu"

@.str = private unnamed_addr constant [3 x i8] c"%d\00", align 1
@.str.1 = private unnamed_addr constant [3 x i8] c"%f\00", align 1
@.str.2 = private unnamed_addr constant [7 x i8] c"%.5lf\0A\00", align 1

; Function Attrs: nofree nounwind sspstrong uwtable
define dso_local i32 @main() local_unnamed_addr #0 {
  %1 = alloca i32, align 4
  %2 = alloca i32, align 4
  %3 = alloca [1000 x float], align 16
  %4 = bitcast i32* %1 to i8*
  call void @llvm.lifetime.start.p0i8(i64 4, i8* nonnull %4) #4
  %5 = bitcast i32* %2 to i8*
  call void @llvm.lifetime.start.p0i8(i64 4, i8* nonnull %5) #4
  %6 = bitcast [1000 x float]* %3 to i8*
  call void @llvm.lifetime.start.p0i8(i64 4000, i8* nonnull %6) #4
  %7 = call i32 (i8*, ...) @__isoc99_scanf(i8* getelementptr inbounds ([3 x i8], [3 x i8]* @.str, i64 0, i64 0), i32* nonnull %1)
  %8 = load i32, i32* %1, align 4, !tbaa !5
  %9 = icmp sgt i32 %8, 0
  br i1 %9, label %11, label %10

10:                                               ; preds = %32, %0
  call void @llvm.lifetime.end.p0i8(i64 4000, i8* nonnull %6) #4
  call void @llvm.lifetime.end.p0i8(i64 4, i8* nonnull %5) #4
  call void @llvm.lifetime.end.p0i8(i64 4, i8* nonnull %4) #4
  ret i32 0

11:                                               ; preds = %0, %32
  %12 = phi i32 [ %35, %32 ], [ 0, %0 ]
  %13 = phi double [ %33, %32 ], [ undef, %0 ]
  %14 = call i32 (i8*, ...) @__isoc99_scanf(i8* getelementptr inbounds ([3 x i8], [3 x i8]* @.str, i64 0, i64 0), i32* nonnull %2)
  %15 = load i32, i32* %2, align 4, !tbaa !5
  %16 = icmp sgt i32 %15, 0
  br i1 %16, label %21, label %32

17:                                               ; preds = %21
  %18 = sitofp i32 %29 to float
  %19 = fdiv float %27, %18
  %20 = icmp sgt i32 %29, 0
  br i1 %20, label %38, label %32

21:                                               ; preds = %11, %21
  %22 = phi i64 [ %28, %21 ], [ 0, %11 ]
  %23 = phi float [ %27, %21 ], [ 0.000000e+00, %11 ]
  %24 = getelementptr inbounds [1000 x float], [1000 x float]* %3, i64 0, i64 %22
  %25 = call i32 (i8*, ...) @__isoc99_scanf(i8* getelementptr inbounds ([3 x i8], [3 x i8]* @.str.1, i64 0, i64 0), float* nonnull %24)
  %26 = load float, float* %24, align 4, !tbaa !9
  %27 = fadd float %23, %26
  %28 = add nuw nsw i64 %22, 1
  %29 = load i32, i32* %2, align 4, !tbaa !5
  %30 = sext i32 %29 to i64
  %31 = icmp slt i64 %28, %30
  br i1 %31, label %21, label %17, !llvm.loop !11

32:                                               ; preds = %38, %11, %17
  %33 = phi double [ %13, %17 ], [ %13, %11 ], [ %50, %38 ]
  %34 = call i32 (i8*, ...) @printf(i8* nonnull dereferenceable(1) getelementptr inbounds ([7 x i8], [7 x i8]* @.str.2, i64 0, i64 0), double %33)
  %35 = add nuw nsw i32 %12, 1
  %36 = load i32, i32* %1, align 4, !tbaa !5
  %37 = icmp slt i32 %35, %36
  br i1 %37, label %11, label %10, !llvm.loop !13

38:                                               ; preds = %17, %38
  %39 = phi i64 [ %51, %38 ], [ 0, %17 ]
  %40 = phi i32 [ %52, %38 ], [ %29, %17 ]
  %41 = phi double [ %49, %38 ], [ 0.000000e+00, %17 ]
  %42 = getelementptr inbounds [1000 x float], [1000 x float]* %3, i64 0, i64 %39
  %43 = load float, float* %42, align 4, !tbaa !9
  %44 = fsub float %43, %19
  %45 = fmul float %44, %44
  %46 = sitofp i32 %40 to float
  %47 = fdiv float %45, %46
  %48 = fpext float %47 to double
  %49 = fadd double %41, %48
  %50 = call double @sqrt(double %49) #4
  %51 = add nuw nsw i64 %39, 1
  %52 = load i32, i32* %2, align 4, !tbaa !5
  %53 = sext i32 %52 to i64
  %54 = icmp slt i64 %51, %53
  br i1 %54, label %38, label %32, !llvm.loop !14
}

; Function Attrs: argmemonly mustprogress nofree nosync nounwind willreturn
declare void @llvm.lifetime.start.p0i8(i64 immarg, i8* nocapture) #1

; Function Attrs: nofree nounwind
declare noundef i32 @__isoc99_scanf(i8* nocapture noundef readonly, ...) local_unnamed_addr #2

; Function Attrs: argmemonly mustprogress nofree nosync nounwind willreturn
declare void @llvm.lifetime.end.p0i8(i64 immarg, i8* nocapture) #1

; Function Attrs: mustprogress nofree nounwind willreturn
declare double @sqrt(double) local_unnamed_addr #3

; Function Attrs: nofree nounwind
declare noundef i32 @printf(i8* nocapture noundef readonly, ...) local_unnamed_addr #2


!llvm.module.flags = !{!0, !1, !2, !3}
!llvm.ident = !{!4}

!0 = !{i32 1, !"wchar_size", i32 4}
!1 = !{i32 7, !"PIC Level", i32 2}
!2 = !{i32 7, !"PIE Level", i32 2}
!3 = !{i32 7, !"uwtable", i32 1}
!4 = !{!"clang version 13.0.0"}
!5 = !{!6, !6, i64 0}
!6 = !{!"int", !7, i64 0}
!7 = !{!"omnipotent char", !8, i64 0}
!8 = !{!"Simple C/C++ TBAA"}
!9 = !{!10, !10, i64 0}
!10 = !{!"float", !7, i64 0}
!11 = distinct !{!11, !12}
!12 = !{!"llvm.loop.mustprogress"}
!13 = distinct !{!13, !12}
!14 = distinct !{!14, !12}
